target datalayout = "e-m:e-p270:32:32-p271:32:32-p272:64:64-i64:64-i128:128-f80:128-n8:16:32:64-S128"
target triple = "x86_64-pc-linux-gnu"

%class.anon = type { i8 }
%"class.std::function" = type { %"class.std::_Function_base", ptr }
%"class.std::_Function_base" = type { %"union.std::_Any_data", ptr }
%"union.std::_Any_data" = type { %"union.std::_Nocopy_types" }
%"union.std::_Nocopy_types" = type { { i64, i64 } }

@_ZZN19OpenColorIO_v2_5dev9APPLE_LOG27GenerateAppleLogToLinearOpsERNS_10OpRcPtrVecEE3P_t = internal global double 0.000000e+00, align 8
@_ZGVZN19OpenColorIO_v2_5dev9APPLE_LOG27GenerateAppleLogToLinearOpsERNS_10OpRcPtrVecEE3P_t = internal global i64 0, align 8

; Function Attrs: mustprogress nounwind uwtable
define linkonce_odr hidden noundef ptr @_ZNSt9_Any_data9_M_accessEv(ptr noundef nonnull align 8 dereferenceable(16) %0) #6 comdat align 2 {
  %2 = alloca ptr, align 8
  store ptr %0, ptr %2, align 8, !tbaa !29
  %3 = load ptr, ptr %2, align 8
  %4 = getelementptr inbounds [16 x i8], ptr %3, i64 0, i64 0
  ret ptr %4
}

; Function Attrs: mustprogress nounwind uwtable
define internal void @"_ZNSt14_Function_base13_Base_managerIZN19OpenColorIO_v2_5dev9APPLE_LOG27GenerateAppleLogToLinearOpsERNS1_10OpRcPtrVecEE3$_0E9_M_createIRS5_EEvRSt9_Any_dataOT_St17integral_constantIbLb1EE"(ptr noundef nonnull align 8 dereferenceable(16) %0, ptr noundef nonnull align 1 dereferenceable(1) %1) #6 align 2 {
  %3 = alloca ptr, align 8
  %4 = alloca ptr, align 8
  store ptr %0, ptr %3, align 8, !tbaa !29
  store ptr %1, ptr %4, align 8, !tbaa !15
  %5 = load ptr, ptr %3, align 8, !tbaa !29
  %6 = call noundef ptr @_ZNSt9_Any_data9_M_accessEv(ptr noundef nonnull align 8 dereferenceable(16) %5) #3
  ret void
}

; Function Attrs: mustprogress nounwind uwtable
define internal void @"_ZNSt14_Function_base13_Base_managerIZN19OpenColorIO_v2_5dev9APPLE_LOG27GenerateAppleLogToLinearOpsERNS1_10OpRcPtrVecEE3$_0E15_M_init_functorIRS5_EEvRSt9_Any_dataOT_"(ptr noundef nonnull align 8 dereferenceable(16) %0, ptr noundef nonnull align 1 dereferenceable(1) %1) #6 align 2 personality ptr @__gxx_personality_v0 {
  %3 = alloca ptr, align 8
  %4 = alloca ptr, align 8
  store ptr %0, ptr %3, align 8, !tbaa !29
  store ptr %1, ptr %4, align 8, !tbaa !15
  %5 = load ptr, ptr %3, align 8, !tbaa !29
  %6 = load ptr, ptr %4, align 8, !tbaa !15
  invoke void @"_ZNSt14_Function_base13_Base_managerIZN19OpenColorIO_v2_5dev9APPLE_LOG27GenerateAppleLogToLinearOpsERNS1_10OpRcPtrVecEE3$_0E9_M_createIRS5_EEvRSt9_Any_dataOT_St17integral_constantIbLb1EE"(ptr noundef nonnull align 8 dereferenceable(16) %5, ptr noundef nonnull align 1 dereferenceable(1) %6)
          to label %7 unwind label %8

7:                                                ; preds = %2
  ret void

8:                                                ; preds = %2
  %9 = landingpad { ptr, i32 }
          catch ptr null
  %10 = extractvalue { ptr, i32 } %9, 0
  call void @__clang_call_terminate(ptr %10) #15
  unreachable
}

; Function Attrs: mustprogress nounwind uwtable
define internal noundef zeroext i1 @"_ZNSt14_Function_base13_Base_managerIZN19OpenColorIO_v2_5dev9APPLE_LOG27GenerateAppleLogToLinearOpsERNS1_10OpRcPtrVecEE3$_0E21_M_not_empty_functionIS5_EEbRKT_"(ptr noundef nonnull align 1 dereferenceable(1) %0) #6 align 2 {
  %2 = alloca ptr, align 8
  store ptr %0, ptr %2, align 8, !tbaa !15
  ret i1 true
}

; Function Attrs: mustprogress nounwind uwtable
define linkonce_odr hidden void @_ZNSt14_Function_baseC2Ev(ptr noundef nonnull align 8 dereferenceable(24) %0) unnamed_addr #6 comdat align 2 {
  %2 = alloca ptr, align 8
  store ptr %0, ptr %2, align 8, !tbaa !26
  %3 = load ptr, ptr %2, align 8
  %4 = getelementptr inbounds nuw %"class.std::_Function_base", ptr %3, i32 0, i32 0
  store ptr null, ptr %4, align 8, !tbaa !28
  %5 = getelementptr inbounds nuw %"class.std::_Function_base", ptr %3, i32 0, i32 1
  store ptr null, ptr %5, align 8, !tbaa !19
  ret void
}

; Function Attrs: mustprogress nounwind uwtable
define linkonce_odr hidden void @_ZNSt14_Function_baseD2Ev(ptr noundef nonnull align 8 dereferenceable(24) %0) unnamed_addr #6 comdat align 2 personality ptr @__gxx_personality_v0 {
  %2 = alloca ptr, align 8
  store ptr %0, ptr %2, align 8, !tbaa !26
  %3 = load ptr, ptr %2, align 8
  %4 = getelementptr inbounds nuw %"class.std::_Function_base", ptr %3, i32 0, i32 1
  %5 = load ptr, ptr %4, align 8, !tbaa !19
  %6 = icmp ne ptr %5, null
  br i1 %6, label %7, label %14

7:                                                ; preds = %1
  %8 = getelementptr inbounds nuw %"class.std::_Function_base", ptr %3, i32 0, i32 1
  %9 = load ptr, ptr %8, align 8, !tbaa !19
  %10 = getelementptr inbounds nuw %"class.std::_Function_base", ptr %3, i32 0, i32 0
  %11 = getelementptr inbounds nuw %"class.std::_Function_base", ptr %3, i32 0, i32 0
  %12 = invoke noundef zeroext i1 %9(ptr noundef nonnull align 8 dereferenceable(16) %10, ptr noundef nonnull align 8 dereferenceable(16) %11, i32 noundef 3)
          to label %13 unwind label %15

13:                                               ; preds = %7
  br label %14

14:                                               ; preds = %13, %1
  ret void

15:                                               ; preds = %7
  %16 = landingpad { ptr, i32 }
          catch ptr null
  %17 = extractvalue { ptr, i32 } %16, 0
  call void @__clang_call_terminate(ptr %17) #15
  unreachable
}

; Function Attrs: mustprogress nounwind uwtable
define internal void @"_ZNSt8functionIFfdEEC2IRZN19OpenColorIO_v2_5dev9APPLE_LOG27GenerateAppleLogToLinearOpsERNS3_10OpRcPtrVecEE3$_0vEEOT_"(ptr noundef nonnull align 8 dereferenceable(32) %0, ptr noundef nonnull align 1 dereferenceable(1) %1) unnamed_addr #6 align 2 {
  %3 = alloca ptr, align 8
  %4 = alloca ptr, align 8
  store ptr %0, ptr %3, align 8, !tbaa !13
  store ptr %1, ptr %4, align 8, !tbaa !15
  %5 = load ptr, ptr %3, align 8
  %6 = getelementptr inbounds i8, ptr %5, i64 0
  call void @llvm.memset.p0.i64(ptr align 8 %6, i8 0, i64 24, i1 false)
  call void @_ZNSt14_Function_baseC2Ev(ptr noundef nonnull align 8 dereferenceable(24) %5) #3
  %7 = getelementptr inbounds nuw %"class.std::function", ptr %5, i32 0, i32 1
  store ptr null, ptr %7, align 8, !tbaa !16
  %8 = load ptr, ptr %4, align 8, !tbaa !15
  %9 = call noundef zeroext i1 @"_ZNSt14_Function_base13_Base_managerIZN19OpenColorIO_v2_5dev9APPLE_LOG27GenerateAppleLogToLinearOpsERNS1_10OpRcPtrVecEE3$_0E21_M_not_empty_functionIS5_EEbRKT_"(ptr noundef nonnull align 1 dereferenceable(1) %8) #3
  br i1 %9, label %10, label %15

10:                                               ; preds = %2
  %11 = getelementptr inbounds nuw %"class.std::_Function_base", ptr %5, i32 0, i32 0
  %12 = load ptr, ptr %4, align 8, !tbaa !15
  call void @"_ZNSt14_Function_base13_Base_managerIZN19OpenColorIO_v2_5dev9APPLE_LOG27GenerateAppleLogToLinearOpsERNS1_10OpRcPtrVecEE3$_0E15_M_init_functorIRS5_EEvRSt9_Any_dataOT_"(ptr noundef nonnull align 8 dereferenceable(16) %11, ptr noundef nonnull align 1 dereferenceable(1) %12) #3
  %13 = getelementptr inbounds nuw %"class.std::function", ptr %5, i32 0, i32 1
  store ptr @"_ZNSt17_Function_handlerIFfdEZN19OpenColorIO_v2_5dev9APPLE_LOG27GenerateAppleLogToLinearOpsERNS1_10OpRcPtrVecEE3$_0E9_M_invokeERKSt9_Any_dataOd", ptr %13, align 8, !tbaa !16
  %14 = getelementptr inbounds nuw %"class.std::_Function_base", ptr %5, i32 0, i32 1
  store ptr @"_ZNSt17_Function_handlerIFfdEZN19OpenColorIO_v2_5dev9APPLE_LOG27GenerateAppleLogToLinearOpsERNS1_10OpRcPtrVecEE3$_0E10_M_managerERSt9_Any_dataRKS7_St18_Manager_operation", ptr %14, align 8, !tbaa !19
  br label %15

15:                                               ; preds = %10, %2
  ret void
}

; Function Attrs: mustprogress uwtable
define hidden void @_ZN19OpenColorIO_v2_5dev9APPLE_LOG27GenerateAppleLogToLinearOpsERNS_10OpRcPtrVecE(ptr noundef nonnull align 8 dereferenceable(144) %0) #4 personality ptr @__gxx_personality_v0 {
  %2 = alloca ptr, align 8
  %3 = alloca %class.anon, align 1
  %4 = alloca %"class.std::function", align 8
  %5 = alloca ptr, align 8
  %6 = alloca i32, align 4
  store ptr %0, ptr %2, align 8, !tbaa !3
  %7 = load atomic i8, ptr @_ZGVZN19OpenColorIO_v2_5dev9APPLE_LOG27GenerateAppleLogToLinearOpsERNS_10OpRcPtrVecEE3P_t acquire, align 8
  %8 = icmp eq i8 %7, 0
  br i1 %8, label %9, label %16, !prof !8

9:                                                ; preds = %1
  %10 = call i32 @__cxa_guard_acquire(ptr @_ZGVZN19OpenColorIO_v2_5dev9APPLE_LOG27GenerateAppleLogToLinearOpsERNS_10OpRcPtrVecEE3P_t) #3
  %11 = icmp ne i32 %10, 0
  br i1 %11, label %12, label %16

12:                                               ; preds = %9
  %13 = call double @pow(double noundef 0x3FB1004DADB2D62B, double noundef 2.000000e+00) #3, !tbaa !9
  %14 = fmul double 0x4047A4C0190A3D1B, %13
  store double %14, ptr @_ZZN19OpenColorIO_v2_5dev9APPLE_LOG27GenerateAppleLogToLinearOpsERNS_10OpRcPtrVecEE3P_t, align 8, !tbaa !11
  %15 = call ptr @llvm.invariant.start.p0(i64 8, ptr @_ZZN19OpenColorIO_v2_5dev9APPLE_LOG27GenerateAppleLogToLinearOpsERNS_10OpRcPtrVecEE3P_t)
  call void @__cxa_guard_release(ptr @_ZGVZN19OpenColorIO_v2_5dev9APPLE_LOG27GenerateAppleLogToLinearOpsERNS_10OpRcPtrVecEE3P_t) #3
  br label %16

16:                                               ; preds = %12, %9, %1
  call void @llvm.lifetime.start.p0(i64 1, ptr %3) #3
  %17 = load ptr, ptr %2, align 8, !tbaa !3
  call void @"_ZNSt8functionIFfdEEC2IRZN19OpenColorIO_v2_5dev9APPLE_LOG27GenerateAppleLogToLinearOpsERNS3_10OpRcPtrVecEE3$_0vEEOT_"(ptr noundef nonnull align 8 dereferenceable(32) %4, ptr noundef nonnull align 1 dereferenceable(1) %3) #3
  invoke void @_ZN19OpenColorIO_v2_5dev13CreateHalfLutERNS_10OpRcPtrVecESt8functionIFfdEE(ptr noundef nonnull align 8 dereferenceable(144) %17, ptr noundef %4)
          to label %18 unwind label %19

18:                                               ; preds = %16
  call void @_ZNSt14_Function_baseD2Ev(ptr noundef nonnull align 8 dereferenceable(32) %4) #3
  call void @llvm.lifetime.end.p0(i64 1, ptr %3) #3
  ret void

19:                                               ; preds = %16
  %20 = landingpad { ptr, i32 }
          cleanup
  %21 = extractvalue { ptr, i32 } %20, 0
  store ptr %21, ptr %5, align 8
  %22 = extractvalue { ptr, i32 } %20, 1
  store i32 %22, ptr %6, align 4
  call void @_ZNSt14_Function_baseD2Ev(ptr noundef nonnull align 8 dereferenceable(32) %4) #3
  call void @llvm.lifetime.end.p0(i64 1, ptr %3) #3
  br label %23

23:                                               ; preds = %19
  %24 = load ptr, ptr %5, align 8
  %25 = load i32, ptr %6, align 4
  %26 = insertvalue { ptr, i32 } poison, ptr %24, 0
  %27 = insertvalue { ptr, i32 } %26, i32 %25, 1
  resume { ptr, i32 } %27
}