; Function Attrs: mustprogress uwtable
define hidden void @_ZN19OpenColorIO_v2_5dev9APPLE_LOG27GenerateAppleLogToLinearOpsERNS_10OpRcPtrVecE(ptr noundef nonnull align 8 dereferenceable(144) %0) local_unnamed_addr #3 personality ptr @__gxx_personality_v0 {
  %2 = alloca %"class.std::function", align 8
  %3 = load atomic i8, ptr @_ZGVZN19OpenColorIO_v2_5dev9APPLE_LOG27GenerateAppleLogToLinearOpsERNS_10OpRcPtrVecEE3P_t acquire, align 8
  %4 = icmp eq i8 %3, 0
  br i1 %4, label %5, label %9, !prof !3

5:                                                ; preds = %1
  %6 = tail call i32 @__cxa_guard_acquire(ptr nonnull @_ZGVZN19OpenColorIO_v2_5dev9APPLE_LOG27GenerateAppleLogToLinearOpsERNS_10OpRcPtrVecEE3P_t) #13
  %.not = icmp eq i32 %6, 0
  br i1 %.not, label %9, label %7

7:                                                ; preds = %5
  store double 0x3FCAB1F0CAB7502F, ptr @_ZZN19OpenColorIO_v2_5dev9APPLE_LOG27GenerateAppleLogToLinearOpsERNS_10OpRcPtrVecEE3P_t, align 8, !tbaa !4
  %8 = tail call ptr @llvm.invariant.start.p0(i64 8, ptr nonnull @_ZZN19OpenColorIO_v2_5dev9APPLE_LOG27GenerateAppleLogToLinearOpsERNS_10OpRcPtrVecEE3P_t)
  tail call void @__cxa_guard_release(ptr nonnull @_ZGVZN19OpenColorIO_v2_5dev9APPLE_LOG27GenerateAppleLogToLinearOpsERNS_10OpRcPtrVecEE3P_t) #13
  br label %9

9:                                                ; preds = %7, %5, %1
  %10 = getelementptr inbounds nuw i8, ptr %2, i64 16
  %11 = getelementptr inbounds nuw i8, ptr %2, i64 24
  call void @llvm.memset.p0.i64(ptr noundef nonnull align 8 dereferenceable(32) %2, i8 0, i64 16, i1 false)
  store ptr @"_ZNSt17_Function_handlerIFfdEZN19OpenColorIO_v2_5dev9APPLE_LOG27GenerateAppleLogToLinearOpsERNS1_10OpRcPtrVecEE3$_0E9_M_invokeERKSt9_Any_dataOd", ptr %11, align 8, !tbaa !8
  store ptr @"_ZNSt17_Function_handlerIFfdEZN19OpenColorIO_v2_5dev9APPLE_LOG27GenerateAppleLogToLinearOpsERNS1_10OpRcPtrVecEE3$_0E10_M_managerERSt9_Any_dataRKS7_St18_Manager_operation", ptr %10, align 8, !tbaa !12
  invoke void @_ZN19OpenColorIO_v2_5dev13CreateHalfLutERNS_10OpRcPtrVecESt8functionIFfdEE(ptr noundef nonnull align 8 dereferenceable(144) %0, ptr noundef nonnull %2)
          to label %12 unwind label %19

12:                                               ; preds = %9
  %13 = load ptr, ptr %10, align 8, !tbaa !12
  %.not.i = icmp eq ptr %13, null
  br i1 %.not.i, label %_ZNSt14_Function_baseD2Ev.exit, label %14

14:                                               ; preds = %12
  %15 = invoke noundef zeroext i1 %13(ptr noundef nonnull align 8 dereferenceable(32) %2, ptr noundef nonnull align 8 dereferenceable(32) %2, i32 noundef 3)
          to label %_ZNSt14_Function_baseD2Ev.exit unwind label %16

16:                                               ; preds = %14
  %17 = landingpad { ptr, i32 }
          catch ptr null
  %18 = extractvalue { ptr, i32 } %17, 0
  call void @__clang_call_terminate(ptr %18) #14
  unreachable

_ZNSt14_Function_baseD2Ev.exit:                   ; preds = %12, %14
  ret void

19:                                               ; preds = %9
  %20 = landingpad { ptr, i32 }
          cleanup
  %21 = load ptr, ptr %10, align 8, !tbaa !12
  %.not.i2 = icmp eq ptr %21, null
  br i1 %.not.i2, label %_ZNSt14_Function_baseD2Ev.exit3, label %22

22:                                               ; preds = %19
  %23 = invoke noundef zeroext i1 %21(ptr noundef nonnull align 8 dereferenceable(32) %2, ptr noundef nonnull align 8 dereferenceable(32) %2, i32 noundef 3)
          to label %_ZNSt14_Function_baseD2Ev.exit3 unwind label %24

24:                                               ; preds = %22
  %25 = landingpad { ptr, i32 }
          catch ptr null
  %26 = extractvalue { ptr, i32 } %25, 0
  call void @__clang_call_terminate(ptr %26) #14
  unreachable

_ZNSt14_Function_baseD2Ev.exit3:                  ; preds = %19, %22
  resume { ptr, i32 } %20
}